; ModuleID = 'source-C-CXX/49/2442.c'
source_filename = "source-C-CXX/49/2442.c"
target datalayout = "e-m:e-p270:32:32-p271:32:32-p272:64:64-i64:64-f80:128-n8:16:32:64-S128"
target triple = "x86_64-pc-linux-gnu"

@__const.main.i = private unnamed_addr constant [12 x i32] [i32 31, i32 28, i32 31, i32 30, i32 31, i32 30, i32 31, i32 31, i32 30, i32 31, i32 30, i32 31], align 16
@.str = private unnamed_addr constant [3 x i8] c"%d\00", align 1
@.str.1 = private unnamed_addr constant [4 x i8] c"%d\0A\00", align 1

; Function Attrs: nofree nounwind sspstrong uwtable
define dso_local i32 @main() local_unnamed_addr #0 {
  %1 = alloca i32, align 4
  %2 = bitcast i32* %1 to i8*
  call void @llvm.lifetime.start.p0i8(i64 4, i8* nonnull %2) #3
  %3 = call i32 (i8*, ...) @__isoc99_scanf(i8* getelementptr inbounds ([3 x i8], [3 x i8]* @.str, i64 0, i64 0), i32* nonnull %1)
  %4 = load i32, i32* %1, align 4, !tbaa !5
  br label %5

5:                                                ; preds = %0, %30
  %6 = phi i32 [ %4, %0 ], [ %32, %30 ]
  %7 = phi i32 [ 1, %0 ], [ %33, %30 ]
  %8 = phi i32 [ 1, %0 ], [ %34, %30 ]
  %9 = phi i32 [ 0, %0 ], [ %20, %30 ]
  %10 = icmp sgt i32 %6, 7
  br i1 %10, label %11, label %13

11:                                               ; preds = %5
  %12 = add nsw i32 %6, -7
  store i32 %12, i32* %1, align 4, !tbaa !5
  br label %13

13:                                               ; preds = %11, %5
  %14 = phi i32 [ %12, %11 ], [ %6, %5 ]
  %15 = zext i32 %9 to i64
  %16 = getelementptr inbounds [12 x i32], [12 x i32]* @__const.main.i, i64 0, i64 %15
  %17 = load i32, i32* %16, align 4, !tbaa !5
  %18 = icmp sgt i32 %7, %17
  %19 = zext i1 %18 to i32
  %20 = add nuw nsw i32 %9, %19
  %21 = select i1 %18, i32 %17, i32 0
  %22 = sub nsw i32 %7, %21
  %23 = icmp eq i32 %22, 13
  %24 = icmp eq i32 %14, 5
  %25 = select i1 %23, i1 %24, i1 false
  br i1 %25, label %26, label %30

26:                                               ; preds = %13
  %27 = add nuw nsw i32 %20, 1
  %28 = call i32 (i8*, ...) @printf(i8* nonnull dereferenceable(1) getelementptr inbounds ([4 x i8], [4 x i8]* @.str.1, i64 0, i64 0), i32 %27)
  %29 = load i32, i32* %1, align 4, !tbaa !5
  br label %30

30:                                               ; preds = %26, %13
  %31 = phi i32 [ %29, %26 ], [ %14, %13 ]
  %32 = add nsw i32 %31, 1
  store i32 %32, i32* %1, align 4, !tbaa !5
  %33 = add nsw i32 %22, 1
  %34 = add nuw nsw i32 %8, 1
  %35 = icmp eq i32 %34, 366
  br i1 %35, label %36, label %5, !llvm.loop !9

36:                                               ; preds = %30
  call void @llvm.lifetime.end.p0i8(i64 4, i8* nonnull %2) #3
  ret i32 0
}

; Function Attrs: argmemonly mustprogress nofree nosync nounwind willreturn
declare void @llvm.lifetime.start.p0i8(i64 immarg, i8* nocapture) #1

; Function Attrs: nofree nounwind
declare noundef i32 @__isoc99_scanf(i8* nocapture noundef readonly, ...) local_unnamed_addr #2

; Function Attrs: nofree nounwind
declare noundef i32 @printf(i8* nocapture noundef readonly, ...) local_unnamed_addr #2

; Function Attrs: argmemonly mustprogress nofree nosync nounwind willreturn
declare void @llvm.lifetime.end.p0i8(i64 immarg, i8* nocapture) #1


!llvm.module.flags = !{!0, !1, !2, !3}
!llvm.ident = !{!4}

!0 = !{i32 1, !"wchar_size", i32 4}
!1 = !{i32 7, !"PIC Level", i32 2}
!2 = !{i32 7, !"PIE Level", i32 2}
!3 = !{i32 7, !"uwtable", i32 1}
!4 = !{!"clang version 13.0.0"}
!5 = !{!6, !6, i64 0}
!6 = !{!"int", !7, i64 0}
!7 = !{!"omnipotent char", !8, i64 0}
!8 = !{!"Simple C/C++ TBAA"}
!9 = distinct !{!9, !10}
!10 = !{!"llvm.loop.mustprogress"}
